target datalayout = "e-m:e-p270:32:32-p271:32:32-p272:64:64-i64:64-f80:128-n8:16:32:64-S128"
target triple = "x86_64-pc-linux-gnu"

@.str = private unnamed_addr constant [6 x i8] c"%d,%d\00", align 1
@.str.1 = private unnamed_addr constant [3 x i8] c"%d\00", align 1
@.str.2 = private unnamed_addr constant [6 x i8] c"%d+%d\00", align 1
@.str.3 = private unnamed_addr constant [3 x i8] c"No\00", align 1

; Function Attrs: noinline nounwind uwtable
define dso_local i32 @main() #0 {
  %1 = alloca i32, align 4
  %2 = alloca i32, align 4
  %3 = alloca i32, align 4
  %4 = alloca [100 x [100 x i32]], align 16
  %5 = alloca i32, align 4
  %6 = alloca i32, align 4
  %7 = alloca [10 x i32], align 16
  %8 = alloca [10 x i32], align 16
  %9 = alloca [10 x i32], align 16
  %10 = alloca [10 x i32], align 16
  %11 = alloca i32, align 4
  store i32 0, i32* %1, align 4
  store i32 0, i32* %11, align 4
  %12 = call i32 (i8*, ...) @__isoc99_scanf(i8* getelementptr inbounds ([6 x i8], [6 x i8]* @.str, i64 0, i64 0), i32* %5, i32* %6)
  store i32 0, i32* %2, align 4
  br label %13

13:                                               ; preds = %34, %0
  %14 = load i32, i32* %2, align 4
  %15 = load i32, i32* %5, align 4
  %16 = icmp slt i32 %14, %15
  br i1 %16, label %17, label %37

17:                                               ; preds = %13
  store i32 0, i32* %3, align 4
  br label %18

18:                                               ; preds = %30, %17
  %19 = load i32, i32* %3, align 4
  %20 = load i32, i32* %6, align 4
  %21 = icmp slt i32 %19, %20
  br i1 %21, label %22, label %33

22:                                               ; preds = %18
  %23 = load i32, i32* %2, align 4
  %24 = sext i32 %23 to i64
  %25 = getelementptr inbounds [100 x [100 x i32]], [100 x [100 x i32]]* %4, i64 0, i64 %24
  %26 = load i32, i32* %3, align 4
  %27 = sext i32 %26 to i64
  %28 = getelementptr inbounds [100 x i32], [100 x i32]* %25, i64 0, i64 %27
  %29 = call i32 (i8*, ...) @__isoc99_scanf(i8* getelementptr inbounds ([3 x i8], [3 x i8]* @.str.1, i64 0, i64 0), i32* %28)
  br label %30

30:                                               ; preds = %22
  %31 = load i32, i32* %3, align 4
  %32 = add nsw i32 %31, 1
  store i32 %32, i32* %3, align 4
  br label %18

33:                                               ; preds = %18
  br label %34

34:                                               ; preds = %33
  %35 = load i32, i32* %2, align 4
  %36 = add nsw i32 %35, 1
  store i32 %36, i32* %2, align 4
  br label %13

37:                                               ; preds = %13
  store i32 0, i32* %2, align 4
  br label %38

38:                                               ; preds = %99, %37
  %39 = load i32, i32* %2, align 4
  %40 = load i32, i32* %5, align 4
  %41 = icmp slt i32 %39, %40
  br i1 %41, label %42, label %102

42:                                               ; preds = %38
  store i32 0, i32* %3, align 4
  br label %43

43:                                               ; preds = %95, %42
  %44 = load i32, i32* %3, align 4
  %45 = load i32, i32* %6, align 4
  %46 = icmp slt i32 %44, %45
  br i1 %46, label %47, label %98

47:                                               ; preds = %43
  %48 = load i32, i32* %3, align 4
  %49 = icmp eq i32 %48, 0
  br i1 %49, label %50, label %65

50:                                               ; preds = %47
  %51 = load i32, i32* %2, align 4
  %52 = sext i32 %51 to i64
  %53 = getelementptr inbounds [100 x [100 x i32]], [100 x [100 x i32]]* %4, i64 0, i64 %52
  %54 = load i32, i32* %3, align 4
  %55 = sext i32 %54 to i64
  %56 = getelementptr inbounds [100 x i32], [100 x i32]* %53, i64 0, i64 %55
  %57 = load i32, i32* %56, align 4
  %58 = load i32, i32* %2, align 4
  %59 = sext i32 %58 to i64
  %60 = getelementptr inbounds [10 x i32], [10 x i32]* %7, i64 0, i64 %59
  store i32 %57, i32* %60, align 4
  %61 = load i32, i32* %2, align 4
  %62 = load i32, i32* %2, align 4
  %63 = sext i32 %62 to i64
  %64 = getelementptr inbounds [10 x i32], [10 x i32]* %8, i64 0, i64 %63
  store i32 %61, i32* %64, align 4
  br label %94

65:                                               ; preds = %47
  %66 = load i32, i32* %2, align 4
  %67 = sext i32 %66 to i64
  %68 = getelementptr inbounds [100 x [100 x i32]], [100 x [100 x i32]]* %4, i64 0, i64 %67
  %69 = load i32, i32* %3, align 4
  %70 = sext i32 %69 to i64
  %71 = getelementptr inbounds [100 x i32], [100 x i32]* %68, i64 0, i64 %70
  %72 = load i32, i32* %71, align 4
  %73 = load i32, i32* %2, align 4
  %74 = sext i32 %73 to i64
  %75 = getelementptr inbounds [10 x i32], [10 x i32]* %7, i64 0, i64 %74
  %76 = load i32, i32* %75, align 4
  %77 = icmp sgt i32 %72, %76
  br i1 %77, label %78, label %93

78:                                               ; preds = %65
  %79 = load i32, i32* %2, align 4
  %80 = sext i32 %79 to i64
  %81 = getelementptr inbounds [100 x [100 x i32]], [100 x [100 x i32]]* %4, i64 0, i64 %80
  %82 = load i32, i32* %3, align 4
  %83 = sext i32 %82 to i64
  %84 = getelementptr inbounds [100 x i32], [100 x i32]* %81, i64 0, i64 %83
  %85 = load i32, i32* %84, align 4
  %86 = load i32, i32* %2, align 4
  %87 = sext i32 %86 to i64
  %88 = getelementptr inbounds [10 x i32], [10 x i32]* %7, i64 0, i64 %87
  store i32 %85, i32* %88, align 4
  %89 = load i32, i32* %2, align 4
  %90 = load i32, i32* %2, align 4
  %91 = sext i32 %90 to i64
  %92 = getelementptr inbounds [10 x i32], [10 x i32]* %8, i64 0, i64 %91
  store i32 %89, i32* %92, align 4
  br label %93

93:                                               ; preds = %78, %65
  br label %94

94:                                               ; preds = %93, %50
  br label %95

95:                                               ; preds = %94
  %96 = load i32, i32* %3, align 4
  %97 = add nsw i32 %96, 1
  store i32 %97, i32* %3, align 4
  br label %43

98:                                               ; preds = %43
  br label %99

99:                                               ; preds = %98
  %100 = load i32, i32* %2, align 4
  %101 = add nsw i32 %100, 1
  store i32 %101, i32* %2, align 4
  br label %38

102:                                              ; preds = %38
  store i32 0, i32* %3, align 4
  br label %103

103:                                              ; preds = %164, %102
  %104 = load i32, i32* %3, align 4
  %105 = load i32, i32* %6, align 4
  %106 = icmp slt i32 %104, %105
  br i1 %106, label %107, label %167

107:                                              ; preds = %103
  store i32 0, i32* %2, align 4
  br label %108

108:                                              ; preds = %160, %107
  %109 = load i32, i32* %2, align 4
  %110 = load i32, i32* %5, align 4
  %111 = icmp slt i32 %109, %110
  br i1 %111, label %112, label %163

112:                                              ; preds = %108
  %113 = load i32, i32* %2, align 4
  %114 = icmp eq i32 %113, 0
  br i1 %114, label %115, label %130

115:                                              ; preds = %112
  %116 = load i32, i32* %2, align 4
  %117 = sext i32 %116 to i64
  %118 = getelementptr inbounds [100 x [100 x i32]], [100 x [100 x i32]]* %4, i64 0, i64 %117
  %119 = load i32, i32* %3, align 4
  %120 = sext i32 %119 to i64
  %121 = getelementptr inbounds [100 x i32], [100 x i32]* %118, i64 0, i64 %120
  %122 = load i32, i32* %121, align 4
  %123 = load i32, i32* %3, align 4
  %124 = sext i32 %123 to i64
  %125 = getelementptr inbounds [10 x i32], [10 x i32]* %9, i64 0, i64 %124
  store i32 %122, i32* %125, align 4
  %126 = load i32, i32* %3, align 4
  %127 = load i32, i32* %3, align 4
  %128 = sext i32 %127 to i64
  %129 = getelementptr inbounds [10 x i32], [10 x i32]* %10, i64 0, i64 %128
  store i32 %126, i32* %129, align 4
  br label %159

130:                                              ; preds = %112
  %131 = load i32, i32* %2, align 4
  %132 = sext i32 %131 to i64
  %133 = getelementptr inbounds [100 x [100 x i32]], [100 x [100 x i32]]* %4, i64 0, i64 %132
  %134 = load i32, i32* %3, align 4
  %135 = sext i32 %134 to i64
  %136 = getelementptr inbounds [100 x i32], [100 x i32]* %133, i64 0, i64 %135
  %137 = load i32, i32* %136, align 4
  %138 = load i32, i32* %3, align 4
  %139 = sext i32 %138 to i64
  %140 = getelementptr inbounds [10 x i32], [10 x i32]* %9, i64 0, i64 %139
  %141 = load i32, i32* %140, align 4
  %142 = icmp slt i32 %137, %141
  br i1 %142, label %143, label %158

143:                                              ; preds = %130
  %144 = load i32, i32* %2, align 4
  %145 = sext i32 %144 to i64
  %146 = getelementptr inbounds [100 x [100 x i32]], [100 x [100 x i32]]* %4, i64 0, i64 %145
  %147 = load i32, i32* %3, align 4
  %148 = sext i32 %147 to i64
  %149 = getelementptr inbounds [100 x i32], [100 x i32]* %146, i64 0, i64 %148
  %150 = load i32, i32* %149, align 4
  %151 = load i32, i32* %3, align 4
  %152 = sext i32 %151 to i64
  %153 = getelementptr inbounds [10 x i32], [10 x i32]* %9, i64 0, i64 %152
  store i32 %150, i32* %153, align 4
  %154 = load i32, i32* %3, align 4
  %155 = load i32, i32* %3, align 4
  %156 = sext i32 %155 to i64
  %157 = getelementptr inbounds [10 x i32], [10 x i32]* %10, i64 0, i64 %156
  store i32 %154, i32* %157, align 4
  br label %158

158:                                              ; preds = %143, %130
  br label %159

159:                                              ; preds = %158, %115
  br label %160

160:                                              ; preds = %159
  %161 = load i32, i32* %2, align 4
  %162 = add nsw i32 %161, 1
  store i32 %162, i32* %2, align 4
  br label %108

163:                                              ; preds = %108
  br label %164

164:                                              ; preds = %163
  %165 = load i32, i32* %3, align 4
  %166 = add nsw i32 %165, 1
  store i32 %166, i32* %3, align 4
  br label %103

167:                                              ; preds = %103
  store i32 0, i32* %2, align 4
  br label %168

168:                                              ; preds = %202, %167
  %169 = load i32, i32* %2, align 4
  %170 = load i32, i32* %5, align 4
  %171 = icmp slt i32 %169, %170
  br i1 %171, label %172, label %205

172:                                              ; preds = %168
  store i32 0, i32* %3, align 4
  br label %173

173:                                              ; preds = %198, %172
  %174 = load i32, i32* %3, align 4
  %175 = load i32, i32* %6, align 4
  %176 = icmp slt i32 %174, %175
  br i1 %176, label %177, label %201

177:                                              ; preds = %173
  %178 = load i32, i32* %2, align 4
  %179 = sext i32 %178 to i64
  %180 = getelementptr inbounds [10 x i32], [10 x i32]* %7, i64 0, i64 %179
  %181 = load i32, i32* %180, align 4
  %182 = load i32, i32* %3, align 4
  %183 = sext i32 %182 to i64
  %184 = getelementptr inbounds [10 x i32], [10 x i32]* %9, i64 0, i64 %183
  %185 = load i32, i32* %184, align 4
  %186 = icmp eq i32 %181, %185
  br i1 %186, label %187, label %197

187:                                              ; preds = %177
  store i32 1, i32* %11, align 4
  %188 = load i32, i32* %2, align 4
  %189 = sext i32 %188 to i64
  %190 = getelementptr inbounds [10 x i32], [10 x i32]* %8, i64 0, i64 %189
  %191 = load i32, i32* %190, align 4
  %192 = load i32, i32* %3, align 4
  %193 = sext i32 %192 to i64
  %194 = getelementptr inbounds [10 x i32], [10 x i32]* %10, i64 0, i64 %193
  %195 = load i32, i32* %194, align 4
  %196 = call i32 (i8*, ...) @printf(i8* getelementptr inbounds ([6 x i8], [6 x i8]* @.str.2, i64 0, i64 0), i32 %191, i32 %195)
  br label %197

197:                                              ; preds = %187, %177
  br label %198

198:                                              ; preds = %197
  %199 = load i32, i32* %3, align 4
  %200 = add nsw i32 %199, 1
  store i32 %200, i32* %3, align 4
  br label %173

201:                                              ; preds = %173
  br label %202

202:                                              ; preds = %201
  %203 = load i32, i32* %2, align 4
  %204 = add nsw i32 %203, 1
  store i32 %204, i32* %2, align 4
  br label %168

205:                                              ; preds = %168
  %206 = load i32, i32* %11, align 4
  %207 = icmp eq i32 %206, 0
  br i1 %207, label %208, label %210

208:                                              ; preds = %205
  %209 = call i32 (i8*, ...) @printf(i8* getelementptr inbounds ([3 x i8], [3 x i8]* @.str.3, i64 0, i64 0))
  br label %210

210:                                              ; preds = %208, %205
  ret i32 0
}